; Function Attrs: mustprogress uwtable
define hidden void @_ZN3sat8parallel11get_clausesERNS_6solverE(ptr noundef nonnull align 8 dereferenceable(176) %this, ptr noundef nonnull align 8 dereferenceable(4408) %s) local_unnamed_addr #4 align 2 personality ptr @__gxx_personality_v0 {
entry:
  %m_par_syncing_clauses = getelementptr inbounds i8, ptr %s, i64 4136
  %0 = load i8, ptr %m_par_syncing_clauses, align 8
  %1 = and i8 %0, 1
  %tobool.not = icmp eq i8 %1, 0
  br i1 %tobool.not, label %if.end, label %return

if.end:                                           ; preds = %entry
  store i8 1, ptr %m_par_syncing_clauses, align 8
  %m_mux = getelementptr inbounds i8, ptr %this, i64 72
  %call1.i.i.i = tail call noundef i32 @pthread_mutex_lock(ptr noundef nonnull %m_mux) #18
  %tobool.not.i.i = icmp eq i32 %call1.i.i.i, 0
  br i1 %tobool.not.i.i, label %invoke.cont, label %if.then.i.i

if.then.i.i:                                      ; preds = %if.end
  invoke void @_ZSt20__throw_system_errori(i32 noundef %call1.i.i.i) #20
          to label %.noexc unwind label %lpad

.noexc:                                           ; preds = %if.then.i.i
  unreachable

invoke.cont:                                      ; preds = %if.end
  invoke void @_ZN3sat8parallel12_get_clausesERNS_6solverE(ptr noundef nonnull align 8 dereferenceable(176) %this, ptr noundef nonnull align 8 dereferenceable(4408) %s)
          to label %invoke.cont4 unwind label %lpad3

invoke.cont4:                                     ; preds = %invoke.cont
  %call1.i.i.i4 = tail call noundef i32 @pthread_mutex_unlock(ptr noundef nonnull %m_mux) #18
  store i8 0, ptr %m_par_syncing_clauses, align 8
  br label %return

return:                                           ; preds = %entry, %invoke.cont4
  ret void

lpad:                                             ; preds = %if.then.i.i
  %2 = landingpad { ptr, i32 }
          cleanup
  br label %ehcleanup

lpad3:                                            ; preds = %invoke.cont
  %3 = landingpad { ptr, i32 }
          cleanup
  %call1.i.i.i6 = tail call noundef i32 @pthread_mutex_unlock(ptr noundef nonnull %m_mux) #18
  br label %ehcleanup

ehcleanup:                                        ; preds = %lpad3, %lpad
  %.pn = phi { ptr, i32 } [ %3, %lpad3 ], [ %2, %lpad ]
  store i8 0, ptr %m_par_syncing_clauses, align 8
  resume { ptr, i32 } %.pn
}